target datalayout = "e-m:e-p270:32:32-p271:32:32-p272:64:64-i64:64-i128:128-f80:128-n8:16:32:64-S128"
target triple = "x86_64-pc-linux-gnu"

@proto_register_nvme_rdma.ett = internal global [2 x ptr] [ptr @ett_cm, ptr @ett_data], align 16
@.str.48 = private unnamed_addr constant [25 x i8] c"NVM Express Fabrics RDMA\00", align 1
@.str.49 = private unnamed_addr constant [18 x i8] c"NVMe Fabrics RDMA\00", align 1
@.str.50 = private unnamed_addr constant [10 x i8] c"nvme-rdma\00", align 1
@proto_nvme_rdma = internal global i32 0, align 4
@gPORT_RANGE = internal global ptr null, align 8
@.str.51 = private unnamed_addr constant [5 x i8] c"4420\00", align 1
@.str.52 = private unnamed_addr constant [16 x i8] c"subsystem_ports\00", align 1
@.str.53 = private unnamed_addr constant [22 x i8] c"Subsystem Ports Range\00", align 1
@.str.54 = private unnamed_addr constant [44 x i8] c"Range of NVMe Subsystem ports(default 4420)\00", align 1

; Function Attrs: null_pointer_is_valid sspstrong uwtable
define hidden void @proto_register_nvme_rdma() #0 {
  %1 = alloca ptr, align 8
  call void @llvm.lifetime.start.p0(i64 8, ptr %1) #8
  %2 = call i32 @proto_register_protocol(ptr noundef @.str.48, ptr noundef @.str.49, ptr noundef @.str.50)
  store i32 %2, ptr @proto_nvme_rdma, align 4
  %3 = load i32, ptr @proto_nvme_rdma, align 4
  call void @proto_register_field_array(i32 noundef %3, ptr noundef @proto_register_nvme_rdma.hf, i32 noundef 25)
  call void @proto_register_subtree_array(ptr noundef @proto_register_nvme_rdma.ett, i32 noundef 2)
  %4 = load i32, ptr @proto_nvme_rdma, align 4
  %5 = call ptr @prefs_register_protocol(i32 noundef %4, ptr noundef null)
  store ptr %5, ptr %1, align 8
  %6 = call ptr @wmem_epan_scope()
  %7 = call i32 @range_convert_str(ptr noundef %6, ptr noundef @gPORT_RANGE, ptr noundef @.str.51, i32 noundef 65535)
  %8 = load ptr, ptr %1, align 8
  call void @prefs_register_range_preference(ptr noundef %8, ptr noundef @.str.52, ptr noundef @.str.53, ptr noundef @.str.54, ptr noundef @gPORT_RANGE, i32 noundef 65535)
  call void @llvm.lifetime.end.p0(i64 8, ptr %1) #8
  ret void
}