; Function Attrs: null_pointer_is_valid sspstrong uwtable
define hidden void @proto_register_nvme_rdma() local_unnamed_addr #0 {
  %1 = tail call i32 @proto_register_protocol(ptr noundef nonnull @.str.48, ptr noundef nonnull @.str.49, ptr noundef nonnull @.str.50)
  store i32 %1, ptr @proto_nvme_rdma, align 4
  tail call void @proto_register_field_array(i32 noundef %1, ptr noundef nonnull @proto_register_nvme_rdma.hf, i32 noundef 25)
  tail call void @proto_register_subtree_array(ptr noundef nonnull @proto_register_nvme_rdma.ett, i32 noundef 2)
  %2 = load i32, ptr @proto_nvme_rdma, align 4
  %3 = tail call ptr @prefs_register_protocol(i32 noundef %2, ptr noundef null)
  %4 = tail call ptr @wmem_epan_scope()
  %5 = tail call i32 @range_convert_str(ptr noundef %4, ptr noundef nonnull @gPORT_RANGE, ptr noundef nonnull @.str.51, i32 noundef 65535)
  tail call void @prefs_register_range_preference(ptr noundef %3, ptr noundef nonnull @.str.52, ptr noundef nonnull @.str.53, ptr noundef nonnull @.str.54, ptr noundef nonnull @gPORT_RANGE, i32 noundef 65535)
  ret void
}